target datalayout = "e-m:e-p270:32:32-p271:32:32-p272:64:64-i64:64-i128:128-f80:128-n8:16:32:64-S128"
target triple = "x86_64-pc-linux-gnu"

%struct.WebPInfo = type { i32, i32, i32, i32, [9 x i32], [3 x i32], i32, i32, i32, i32, i32, i64, i32, i32, i32, i32, i32, i32, i32, i32 }

@stderr = external global ptr, align 8
@.str.16 = private unnamed_addr constant [11 x i8] c"Error: %s\0A\00", align 1
@.str.53 = private unnamed_addr constant [4 x i8] c"Yes\00", align 1
@.str.54 = private unnamed_addr constant [3 x i8] c"No\00", align 1
@.str.83 = private unnamed_addr constant [30 x i8] c"Truncated lossless bitstream.\00", align 1
@.str.89 = private unnamed_addr constant [24 x i8] c"  Use transform:    %s\0A\00", align 1
@.str.90 = private unnamed_addr constant [29 x i8] c"  1st transform:    %s (%d)\0A\00", align 1
@kLosslessTransforms = internal constant [4 x ptr] [ptr @.str.93, ptr @.str.94, ptr @.str.95, ptr @.str.96], align 16
@.str.91 = private unnamed_addr constant [24 x i8] c"  Tran. block size: %d\0A\00", align 1
@.str.92 = private unnamed_addr constant [24 x i8] c"  No. of colors:    %d\0A\00", align 1

; Function Attrs: nounwind uwtable
define internal i32 @LLGetBits(ptr noundef %0, i64 noundef %1, i64 noundef %2, ptr noundef %3, ptr noundef %4) #0 {
  %6 = alloca i32, align 4
  %7 = alloca ptr, align 8
  %8 = alloca i64, align 8
  %9 = alloca i64, align 8
  %10 = alloca ptr, align 8
  %11 = alloca ptr, align 8
  %12 = alloca i32, align 4
  %13 = alloca i64, align 8
  %14 = alloca i32, align 4
  store ptr %0, ptr %7, align 8
  store i64 %1, ptr %8, align 8
  store i64 %2, ptr %9, align 8
  store ptr %3, ptr %10, align 8
  store ptr %4, ptr %11, align 8
  store i32 0, ptr %12, align 4
  %15 = load ptr, ptr %10, align 8
  store i32 0, ptr %15, align 4
  br label %16

16:                                               ; preds = %55, %5
  %17 = load i32, ptr %12, align 4
  %18 = zext i32 %17 to i64
  %19 = load i64, ptr %9, align 8
  %20 = icmp ult i64 %18, %19
  br i1 %20, label %21, label %56

21:                                               ; preds = %16
  %22 = load ptr, ptr %11, align 8
  %23 = load i64, ptr %22, align 8
  %24 = add i64 %23, 1
  store i64 %24, ptr %22, align 8
  store i64 %23, ptr %13, align 8
  %25 = load i64, ptr %13, align 8
  %26 = lshr i64 %25, 3
  %27 = load i64, ptr %8, align 8
  %28 = icmp uge i64 %26, %27
  br i1 %28, label %29, label %30

29:                                               ; preds = %21
  store i32 0, ptr %6, align 4
  br label %57

30:                                               ; preds = %21
  %31 = load ptr, ptr %7, align 8
  %32 = load i64, ptr %13, align 8
  %33 = lshr i64 %32, 3
  %34 = getelementptr inbounds i8, ptr %31, i64 %33
  %35 = load i8, ptr %34, align 1
  %36 = zext i8 %35 to i32
  %37 = load i64, ptr %13, align 8
  %38 = and i64 %37, 7
  %39 = trunc i64 %38 to i32
  %40 = shl i32 1, %39
  %41 = and i32 %36, %40
  %42 = icmp ne i32 %41, 0
  %43 = xor i1 %42, true
  %44 = xor i1 %43, true
  %45 = zext i1 %44 to i32
  store i32 %45, ptr %14, align 4
  %46 = load ptr, ptr %10, align 8
  %47 = load i32, ptr %46, align 4
  %48 = load i32, ptr %14, align 4
  %49 = load i32, ptr %12, align 4
  %50 = shl i32 %48, %49
  %51 = or i32 %47, %50
  %52 = load ptr, ptr %10, align 8
  store i32 %51, ptr %52, align 4
  %53 = load i32, ptr %12, align 4
  %54 = add i32 %53, 1
  store i32 %54, ptr %12, align 4
  br label %55

55:                                               ; preds = %30
  br label %16, !llvm.loop !17

56:                                               ; preds = %16
  store i32 1, ptr %6, align 4
  br label %57

57:                                               ; preds = %56, %29
  %58 = load i32, ptr %6, align 4
  ret i32 %58
}

; Function Attrs: nounwind uwtable
define internal i32 @ParseLosslessTransform(ptr noundef %0, ptr noundef %1, i64 noundef %2, ptr noundef %3) #0 {
  %5 = alloca i32, align 4
  %6 = alloca ptr, align 8
  %7 = alloca ptr, align 8
  %8 = alloca i64, align 8
  %9 = alloca ptr, align 8
  %10 = alloca i32, align 4
  %11 = alloca i32, align 4
  %12 = alloca i32, align 4
  %13 = alloca i32, align 4
  store ptr %0, ptr %6, align 8
  store ptr %1, ptr %7, align 8
  store i64 %2, ptr %8, align 8
  store ptr %3, ptr %9, align 8
  br label %14

14:                                               ; preds = %4
  %15 = load ptr, ptr %7, align 8
  %16 = load i64, ptr %8, align 8
  %17 = load ptr, ptr %9, align 8
  %18 = call i32 @LLGetBits(ptr noundef %15, i64 noundef %16, i64 noundef 1, ptr noundef %10, ptr noundef %17)
  %19 = icmp ne i32 %18, 0
  br i1 %19, label %31, label %20

20:                                               ; preds = %14
  br label %21

21:                                               ; preds = %20
  %22 = load ptr, ptr %6, align 8
  %23 = getelementptr inbounds %struct.WebPInfo, ptr %22, i32 0, i32 16
  %24 = load i32, ptr %23, align 8
  %25 = icmp ne i32 %24, 0
  br i1 %25, label %26, label %29

26:                                               ; preds = %21
  %27 = load ptr, ptr @stderr, align 8
  %28 = call i32 (ptr, ptr, ...) @fprintf(ptr noundef %27, ptr noundef @.str.16, ptr noundef @.str.83) #7
  br label %29

29:                                               ; preds = %26, %21
  br label %30

30:                                               ; preds = %29
  store i32 1, ptr %5, align 4
  br label %118

31:                                               ; preds = %14
  br label %32

32:                                               ; preds = %31
  %33 = load i32, ptr %10, align 4
  %34 = icmp ne i32 %33, 0
  %35 = select i1 %34, ptr @.str.53, ptr @.str.54
  %36 = call i32 (ptr, ...) @printf(ptr noundef @.str.89, ptr noundef %35)
  %37 = load i32, ptr %10, align 4
  %38 = icmp ne i32 %37, 0
  br i1 %38, label %39, label %117

39:                                               ; preds = %32
  br label %40

40:                                               ; preds = %39
  %41 = load ptr, ptr %7, align 8
  %42 = load i64, ptr %8, align 8
  %43 = load ptr, ptr %9, align 8
  %44 = call i32 @LLGetBits(ptr noundef %41, i64 noundef %42, i64 noundef 2, ptr noundef %13, ptr noundef %43)
  %45 = icmp ne i32 %44, 0
  br i1 %45, label %57, label %46

46:                                               ; preds = %40
  br label %47

47:                                               ; preds = %46
  %48 = load ptr, ptr %6, align 8
  %49 = getelementptr inbounds %struct.WebPInfo, ptr %48, i32 0, i32 16
  %50 = load i32, ptr %49, align 8
  %51 = icmp ne i32 %50, 0
  br i1 %51, label %52, label %55

52:                                               ; preds = %47
  %53 = load ptr, ptr @stderr, align 8
  %54 = call i32 (ptr, ptr, ...) @fprintf(ptr noundef %53, ptr noundef @.str.16, ptr noundef @.str.83) #7
  br label %55

55:                                               ; preds = %52, %47
  br label %56

56:                                               ; preds = %55
  store i32 1, ptr %5, align 4
  br label %118

57:                                               ; preds = %40
  br label %58

58:                                               ; preds = %57
  %59 = load i32, ptr %13, align 4
  %60 = sext i32 %59 to i64
  %61 = getelementptr inbounds [4 x ptr], ptr @kLosslessTransforms, i64 0, i64 %60
  %62 = load ptr, ptr %61, align 8
  %63 = load i32, ptr %13, align 4
  %64 = call i32 (ptr, ...) @printf(ptr noundef @.str.90, ptr noundef %62, i32 noundef %63)
  %65 = load i32, ptr %13, align 4
  switch i32 %65, label %115 [
    i32 0, label %66
    i32 1, label %66
    i32 3, label %91
  ]

66:                                               ; preds = %58, %58
  br label %67

67:                                               ; preds = %66
  %68 = load ptr, ptr %7, align 8
  %69 = load i64, ptr %8, align 8
  %70 = load ptr, ptr %9, align 8
  %71 = call i32 @LLGetBits(ptr noundef %68, i64 noundef %69, i64 noundef 3, ptr noundef %11, ptr noundef %70)
  %72 = icmp ne i32 %71, 0
  br i1 %72, label %84, label %73

73:                                               ; preds = %67
  br label %74

74:                                               ; preds = %73
  %75 = load ptr, ptr %6, align 8
  %76 = getelementptr inbounds %struct.WebPInfo, ptr %75, i32 0, i32 16
  %77 = load i32, ptr %76, align 8
  %78 = icmp ne i32 %77, 0
  br i1 %78, label %79, label %82

79:                                               ; preds = %74
  %80 = load ptr, ptr @stderr, align 8
  %81 = call i32 (ptr, ptr, ...) @fprintf(ptr noundef %80, ptr noundef @.str.16, ptr noundef @.str.83) #7
  br label %82

82:                                               ; preds = %79, %74
  br label %83

83:                                               ; preds = %82
  store i32 1, ptr %5, align 4
  br label %118

84:                                               ; preds = %67
  br label %85

85:                                               ; preds = %84
  %86 = load i32, ptr %11, align 4
  %87 = add nsw i32 %86, 2
  %88 = shl i32 1, %87
  store i32 %88, ptr %11, align 4
  %89 = load i32, ptr %11, align 4
  %90 = call i32 (ptr, ...) @printf(ptr noundef @.str.91, i32 noundef %89)
  br label %116

91:                                               ; preds = %58
  br label %92

92:                                               ; preds = %91
  %93 = load ptr, ptr %7, align 8
  %94 = load i64, ptr %8, align 8
  %95 = load ptr, ptr %9, align 8
  %96 = call i32 @LLGetBits(ptr noundef %93, i64 noundef %94, i64 noundef 8, ptr noundef %12, ptr noundef %95)
  %97 = icmp ne i32 %96, 0
  br i1 %97, label %109, label %98

98:                                               ; preds = %92
  br label %99

99:                                               ; preds = %98
  %100 = load ptr, ptr %6, align 8
  %101 = getelementptr inbounds %struct.WebPInfo, ptr %100, i32 0, i32 16
  %102 = load i32, ptr %101, align 8
  %103 = icmp ne i32 %102, 0
  br i1 %103, label %104, label %107

104:                                              ; preds = %99
  %105 = load ptr, ptr @stderr, align 8
  %106 = call i32 (ptr, ptr, ...) @fprintf(ptr noundef %105, ptr noundef @.str.16, ptr noundef @.str.83) #7
  br label %107

107:                                              ; preds = %104, %99
  br label %108

108:                                              ; preds = %107
  store i32 1, ptr %5, align 4
  br label %118

109:                                              ; preds = %92
  br label %110

110:                                              ; preds = %109
  %111 = load i32, ptr %12, align 4
  %112 = add nsw i32 %111, 1
  store i32 %112, ptr %12, align 4
  %113 = load i32, ptr %12, align 4
  %114 = call i32 (ptr, ...) @printf(ptr noundef @.str.92, i32 noundef %113)
  br label %116

115:                                              ; preds = %58
  br label %116

116:                                              ; preds = %115, %110, %85
  br label %117

117:                                              ; preds = %116, %32
  store i32 0, ptr %5, align 4
  br label %118

118:                                              ; preds = %117, %108, %83, %56, %30
  %119 = load i32, ptr %5, align 4
  ret i32 %119
}