; Function Attrs: nofree nounwind uwtable
define internal fastcc range(i32 0, 2) i32 @ParseLosslessTransform(ptr nocapture noundef readonly %0, ptr nocapture noundef readonly %1, i64 noundef %2, ptr nocapture noundef %3) unnamed_addr #6 {
.lr.ph.i:
  %.promoted = load i64, ptr %3, align 8
  %4 = add i64 %.promoted, 1
  store i64 %4, ptr %3, align 8
  %5 = lshr i64 %.promoted, 3
  %.not.i = icmp ult i64 %5, %2
  br i1 %.not.i, label %LLGetBits.exit, label %15

LLGetBits.exit:                                   ; preds = %.lr.ph.i
  %6 = getelementptr inbounds i8, ptr %1, i64 %5
  %7 = load i8, ptr %6, align 1
  %8 = zext i8 %7 to i32
  %9 = trunc i64 %.promoted to i32
  %10 = and i32 %9, 7
  %11 = shl nuw nsw i32 1, %10
  %12 = and i32 %11, %8
  %.not17 = icmp eq i32 %12, 0
  %13 = select i1 %.not17, ptr @.str.54, ptr @.str.53
  %14 = tail call i32 (ptr, ...) @printf(ptr noundef nonnull dereferenceable(1) @.str.89, ptr noundef nonnull %13)
  br i1 %.not17, label %91, label %.lr.ph.i25.preheader

15:                                               ; preds = %.lr.ph.i
  %16 = getelementptr inbounds i8, ptr %0, i64 112
  %17 = load i32, ptr %16, align 8
  %.not16 = icmp eq i32 %17, 0
  br i1 %.not16, label %91, label %18

18:                                               ; preds = %15
  %19 = load ptr, ptr @stderr, align 8
  %20 = tail call i32 (ptr, ptr, ...) @fprintf(ptr noundef %19, ptr noundef nonnull @.str.16, ptr noundef nonnull @.str.83) #13
  br label %91

.lr.ph.i25.preheader:                             ; preds = %LLGetBits.exit
  %.promoted71 = load i64, ptr %3, align 8
  br label %.lr.ph.i25

.lr.ph.i25:                                       ; preds = %.lr.ph.i25.preheader, %24
  %21 = phi i64 [ %22, %24 ], [ %.promoted71, %.lr.ph.i25.preheader ]
  %.049 = phi i32 [ %33, %24 ], [ 0, %.lr.ph.i25.preheader ]
  %.01416.i26 = phi i32 [ %34, %24 ], [ 0, %.lr.ph.i25.preheader ]
  %22 = add i64 %21, 1
  store i64 %22, ptr %3, align 8
  %23 = lshr i64 %21, 3
  %.not.i27 = icmp ult i64 %23, %2
  br i1 %.not.i27, label %24, label %35

24:                                               ; preds = %.lr.ph.i25
  %25 = getelementptr inbounds i8, ptr %1, i64 %23
  %26 = load i8, ptr %25, align 1
  %27 = zext i8 %26 to i32
  %28 = trunc i64 %21 to i32
  %29 = and i32 %28, 7
  %30 = lshr i32 %27, %29
  %31 = and i32 %30, 1
  %32 = shl nuw i32 %31, %.01416.i26
  %33 = or i32 %32, %.049
  %34 = add nuw nsw i32 %.01416.i26, 1
  %exitcond.not = icmp eq i32 %34, 2
  br i1 %exitcond.not, label %LLGetBits.exit29, label %.lr.ph.i25, !llvm.loop !13

35:                                               ; preds = %.lr.ph.i25
  %36 = getelementptr inbounds i8, ptr %0, i64 112
  %37 = load i32, ptr %36, align 8
  %.not20 = icmp eq i32 %37, 0
  br i1 %.not20, label %91, label %38

38:                                               ; preds = %35
  %39 = load ptr, ptr @stderr, align 8
  %40 = tail call i32 (ptr, ptr, ...) @fprintf(ptr noundef %39, ptr noundef nonnull @.str.16, ptr noundef nonnull @.str.83) #13
  br label %91

LLGetBits.exit29:                                 ; preds = %24
  %41 = sext i32 %33 to i64
  %42 = getelementptr inbounds [4 x ptr], ptr @kLosslessTransforms, i64 0, i64 %41
  %43 = load ptr, ptr %42, align 8
  %44 = tail call i32 (ptr, ...) @printf(ptr noundef nonnull dereferenceable(1) @.str.90, ptr noundef %43, i32 noundef %33)
  switch i32 %33, label %91 [
    i32 0, label %45
    i32 1, label %45
    i32 3, label %.lr.ph.i35.preheader
  ]

.lr.ph.i35.preheader:                             ; preds = %LLGetBits.exit29
  %.promoted72 = load i64, ptr %3, align 8
  br label %.lr.ph.i35

45:                                               ; preds = %LLGetBits.exit29, %LLGetBits.exit29
  %.promoted73 = load i64, ptr %3, align 8
  br label %.lr.ph.i30

.lr.ph.i30:                                       ; preds = %49, %45
  %46 = phi i64 [ %.promoted73, %45 ], [ %47, %49 ]
  %.052 = phi i32 [ 0, %45 ], [ %58, %49 ]
  %.01416.i31 = phi i32 [ 0, %45 ], [ %59, %49 ]
  %47 = add i64 %46, 1
  store i64 %47, ptr %3, align 8
  %48 = lshr i64 %46, 3
  %.not.i32 = icmp ult i64 %48, %2
  br i1 %.not.i32, label %49, label %60

49:                                               ; preds = %.lr.ph.i30
  %50 = getelementptr inbounds i8, ptr %1, i64 %48
  %51 = load i8, ptr %50, align 1
  %52 = zext i8 %51 to i32
  %53 = trunc i64 %46 to i32
  %54 = and i32 %53, 7
  %55 = lshr i32 %52, %54
  %56 = and i32 %55, 1
  %57 = shl nuw i32 %56, %.01416.i31
  %58 = or i32 %57, %.052
  %59 = add nuw nsw i32 %.01416.i31, 1
  %exitcond78.not = icmp eq i32 %59, 3
  br i1 %exitcond78.not, label %LLGetBits.exit34, label %.lr.ph.i30, !llvm.loop !13

60:                                               ; preds = %.lr.ph.i30
  %61 = getelementptr inbounds i8, ptr %0, i64 112
  %62 = load i32, ptr %61, align 8
  %.not24 = icmp eq i32 %62, 0
  br i1 %.not24, label %91, label %63

63:                                               ; preds = %60
  %64 = load ptr, ptr @stderr, align 8
  %65 = tail call i32 (ptr, ptr, ...) @fprintf(ptr noundef %64, ptr noundef nonnull @.str.16, ptr noundef nonnull @.str.83) #13
  br label %91

LLGetBits.exit34:                                 ; preds = %49
  %66 = add nsw i32 %58, 2
  %67 = shl nuw i32 1, %66
  %68 = tail call i32 (ptr, ...) @printf(ptr noundef nonnull dereferenceable(1) @.str.91, i32 noundef %67)
  br label %91

.lr.ph.i35:                                       ; preds = %.lr.ph.i35.preheader, %72
  %69 = phi i64 [ %70, %72 ], [ %.promoted72, %.lr.ph.i35.preheader ]
  %.050 = phi i32 [ %81, %72 ], [ 0, %.lr.ph.i35.preheader ]
  %.01416.i36 = phi i32 [ %82, %72 ], [ 0, %.lr.ph.i35.preheader ]
  %70 = add i64 %69, 1
  store i64 %70, ptr %3, align 8
  %71 = lshr i64 %69, 3
  %.not.i37 = icmp ult i64 %71, %2
  br i1 %.not.i37, label %72, label %83

72:                                               ; preds = %.lr.ph.i35
  %73 = getelementptr inbounds i8, ptr %1, i64 %71
  %74 = load i8, ptr %73, align 1
  %75 = zext i8 %74 to i32
  %76 = trunc i64 %69 to i32
  %77 = and i32 %76, 7
  %78 = lshr i32 %75, %77
  %79 = and i32 %78, 1
  %80 = shl nuw i32 %79, %.01416.i36
  %81 = or i32 %80, %.050
  %82 = add nuw nsw i32 %.01416.i36, 1
  %exitcond77.not = icmp eq i32 %82, 8
  br i1 %exitcond77.not, label %LLGetBits.exit39, label %.lr.ph.i35, !llvm.loop !13

83:                                               ; preds = %.lr.ph.i35
  %84 = getelementptr inbounds i8, ptr %0, i64 112
  %85 = load i32, ptr %84, align 8
  %.not22 = icmp eq i32 %85, 0
  br i1 %.not22, label %91, label %86

86:                                               ; preds = %83
  %87 = load ptr, ptr @stderr, align 8
  %88 = tail call i32 (ptr, ptr, ...) @fprintf(ptr noundef %87, ptr noundef nonnull @.str.16, ptr noundef nonnull @.str.83) #13
  br label %91

LLGetBits.exit39:                                 ; preds = %72
  %89 = add nsw i32 %81, 1
  %90 = tail call i32 (ptr, ...) @printf(ptr noundef nonnull dereferenceable(1) @.str.92, i32 noundef %89)
  br label %91

91:                                               ; preds = %LLGetBits.exit, %LLGetBits.exit29, %LLGetBits.exit39, %LLGetBits.exit34, %86, %83, %63, %60, %38, %35, %18, %15
  %.0 = phi i32 [ 1, %15 ], [ 1, %18 ], [ 1, %35 ], [ 1, %38 ], [ 1, %60 ], [ 1, %63 ], [ 1, %83 ], [ 1, %86 ], [ 0, %LLGetBits.exit34 ], [ 0, %LLGetBits.exit39 ], [ 0, %LLGetBits.exit29 ], [ 0, %LLGetBits.exit ]
  ret i32 %.0
}